target datalayout = "e-m:e-p270:32:32-p271:32:32-p272:64:64-i64:64-i128:128-f80:128-n8:16:32:64-S128"
target triple = "x86_64-pc-linux-gnu"

%"class.o3dgc::Arithmetic_Codec" = type <{ ptr, ptr, ptr, i32, i32, i32, i32, i32, [4 x i8] }>
%"class.o3dgc::Adaptive_Bit_Model" = type { i32, i32, i32, i32, i32 }

; Function Attrs: mustprogress nounwind uwtable
define hidden void @_ZN5o3dgc18Adaptive_Bit_Model6updateEv(ptr noundef nonnull align 4 dereferenceable(20) %0) #3 align 2 {
  %2 = alloca ptr, align 8
  %3 = alloca i32, align 4
  store ptr %0, ptr %2, align 8
  %4 = load ptr, ptr %2, align 8
  %5 = getelementptr inbounds nuw %"class.o3dgc::Adaptive_Bit_Model", ptr %4, i32 0, i32 0
  %6 = load i32, ptr %5, align 4
  %7 = getelementptr inbounds nuw %"class.o3dgc::Adaptive_Bit_Model", ptr %4, i32 0, i32 4
  %8 = load i32, ptr %7, align 4
  %9 = add i32 %8, %6
  store i32 %9, ptr %7, align 4
  %10 = icmp ugt i32 %9, 8192
  br i1 %10, label %11, label %32

11:                                               ; preds = %1
  %12 = getelementptr inbounds nuw %"class.o3dgc::Adaptive_Bit_Model", ptr %4, i32 0, i32 4
  %13 = load i32, ptr %12, align 4
  %14 = add i32 %13, 1
  %15 = lshr i32 %14, 1
  %16 = getelementptr inbounds nuw %"class.o3dgc::Adaptive_Bit_Model", ptr %4, i32 0, i32 4
  store i32 %15, ptr %16, align 4
  %17 = getelementptr inbounds nuw %"class.o3dgc::Adaptive_Bit_Model", ptr %4, i32 0, i32 3
  %18 = load i32, ptr %17, align 4
  %19 = add i32 %18, 1
  %20 = lshr i32 %19, 1
  %21 = getelementptr inbounds nuw %"class.o3dgc::Adaptive_Bit_Model", ptr %4, i32 0, i32 3
  store i32 %20, ptr %21, align 4
  %22 = getelementptr inbounds nuw %"class.o3dgc::Adaptive_Bit_Model", ptr %4, i32 0, i32 3
  %23 = load i32, ptr %22, align 4
  %24 = getelementptr inbounds nuw %"class.o3dgc::Adaptive_Bit_Model", ptr %4, i32 0, i32 4
  %25 = load i32, ptr %24, align 4
  %26 = icmp eq i32 %23, %25
  br i1 %26, label %27, label %31

27:                                               ; preds = %11
  %28 = getelementptr inbounds nuw %"class.o3dgc::Adaptive_Bit_Model", ptr %4, i32 0, i32 4
  %29 = load i32, ptr %28, align 4
  %30 = add i32 %29, 1
  store i32 %30, ptr %28, align 4
  br label %31

31:                                               ; preds = %27, %11
  br label %32

32:                                               ; preds = %31, %1
  call void @llvm.lifetime.start.p0(i64 4, ptr %3) #12
  %33 = getelementptr inbounds nuw %"class.o3dgc::Adaptive_Bit_Model", ptr %4, i32 0, i32 4
  %34 = load i32, ptr %33, align 4
  %35 = udiv i32 -2147483648, %34
  store i32 %35, ptr %3, align 4
  %36 = getelementptr inbounds nuw %"class.o3dgc::Adaptive_Bit_Model", ptr %4, i32 0, i32 3
  %37 = load i32, ptr %36, align 4
  %38 = load i32, ptr %3, align 4
  %39 = mul i32 %37, %38
  %40 = lshr i32 %39, 18
  %41 = getelementptr inbounds nuw %"class.o3dgc::Adaptive_Bit_Model", ptr %4, i32 0, i32 2
  store i32 %40, ptr %41, align 4
  %42 = getelementptr inbounds nuw %"class.o3dgc::Adaptive_Bit_Model", ptr %4, i32 0, i32 0
  %43 = load i32, ptr %42, align 4
  %44 = mul i32 5, %43
  %45 = lshr i32 %44, 2
  %46 = getelementptr inbounds nuw %"class.o3dgc::Adaptive_Bit_Model", ptr %4, i32 0, i32 0
  store i32 %45, ptr %46, align 4
  %47 = getelementptr inbounds nuw %"class.o3dgc::Adaptive_Bit_Model", ptr %4, i32 0, i32 0
  %48 = load i32, ptr %47, align 4
  %49 = icmp ugt i32 %48, 64
  br i1 %49, label %50, label %52

50:                                               ; preds = %32
  %51 = getelementptr inbounds nuw %"class.o3dgc::Adaptive_Bit_Model", ptr %4, i32 0, i32 0
  store i32 64, ptr %51, align 4
  br label %52

52:                                               ; preds = %50, %32
  %53 = getelementptr inbounds nuw %"class.o3dgc::Adaptive_Bit_Model", ptr %4, i32 0, i32 0
  %54 = load i32, ptr %53, align 4
  %55 = getelementptr inbounds nuw %"class.o3dgc::Adaptive_Bit_Model", ptr %4, i32 0, i32 1
  store i32 %54, ptr %55, align 4
  call void @llvm.lifetime.end.p0(i64 4, ptr %3) #12
  ret void
}

; Function Attrs: inlinehint mustprogress nounwind uwtable
define linkonce_odr hidden void @_ZN5o3dgc16Arithmetic_Codec19renorm_dec_intervalEv(ptr noundef nonnull align 8 dereferenceable(44) %0) #2 comdat align 2 {
  %2 = alloca ptr, align 8
  store ptr %0, ptr %2, align 8
  %3 = load ptr, ptr %2, align 8
  br label %4

4:                                                ; preds = %15, %1
  %5 = getelementptr inbounds nuw %"class.o3dgc::Arithmetic_Codec", ptr %3, i32 0, i32 4
  %6 = load i32, ptr %5, align 4
  %7 = shl i32 %6, 8
  %8 = getelementptr inbounds nuw %"class.o3dgc::Arithmetic_Codec", ptr %3, i32 0, i32 2
  %9 = load ptr, ptr %8, align 8
  %10 = getelementptr inbounds nuw i8, ptr %9, i32 1
  store ptr %10, ptr %8, align 8
  %11 = load i8, ptr %10, align 1
  %12 = zext i8 %11 to i32
  %13 = or i32 %7, %12
  %14 = getelementptr inbounds nuw %"class.o3dgc::Arithmetic_Codec", ptr %3, i32 0, i32 4
  store i32 %13, ptr %14, align 4
  br label %15

15:                                               ; preds = %4
  %16 = getelementptr inbounds nuw %"class.o3dgc::Arithmetic_Codec", ptr %3, i32 0, i32 5
  %17 = load i32, ptr %16, align 8
  %18 = shl i32 %17, 8
  store i32 %18, ptr %16, align 8
  %19 = icmp ult i32 %18, 16777216
  br i1 %19, label %4, label %20, !llvm.loop !6

20:                                               ; preds = %15
  ret void
}

; Function Attrs: mustprogress uwtable
define hidden noundef i32 @_ZN5o3dgc16Arithmetic_Codec6decodeERNS_18Adaptive_Bit_ModelE(ptr noundef nonnull align 8 dereferenceable(44) %0, ptr noundef nonnull align 4 dereferenceable(20) %1) #0 align 2 {
  %3 = alloca ptr, align 8
  %4 = alloca ptr, align 8
  %5 = alloca i32, align 4
  %6 = alloca i32, align 4
  store ptr %0, ptr %3, align 8
  store ptr %1, ptr %4, align 8
  %7 = load ptr, ptr %3, align 8
  call void @llvm.lifetime.start.p0(i64 4, ptr %5) #12
  %8 = load ptr, ptr %4, align 8
  %9 = getelementptr inbounds nuw %"class.o3dgc::Adaptive_Bit_Model", ptr %8, i32 0, i32 2
  %10 = load i32, ptr %9, align 4
  %11 = getelementptr inbounds nuw %"class.o3dgc::Arithmetic_Codec", ptr %7, i32 0, i32 5
  %12 = load i32, ptr %11, align 8
  %13 = lshr i32 %12, 13
  %14 = mul i32 %10, %13
  store i32 %14, ptr %5, align 4
  call void @llvm.lifetime.start.p0(i64 4, ptr %6) #12
  %15 = getelementptr inbounds nuw %"class.o3dgc::Arithmetic_Codec", ptr %7, i32 0, i32 4
  %16 = load i32, ptr %15, align 4
  %17 = load i32, ptr %5, align 4
  %18 = icmp uge i32 %16, %17
  %19 = zext i1 %18 to i32
  store i32 %19, ptr %6, align 4
  %20 = load i32, ptr %6, align 4
  %21 = icmp eq i32 %20, 0
  br i1 %21, label %22, label %29

22:                                               ; preds = %2
  %23 = load i32, ptr %5, align 4
  %24 = getelementptr inbounds nuw %"class.o3dgc::Arithmetic_Codec", ptr %7, i32 0, i32 5
  store i32 %23, ptr %24, align 8
  %25 = load ptr, ptr %4, align 8
  %26 = getelementptr inbounds nuw %"class.o3dgc::Adaptive_Bit_Model", ptr %25, i32 0, i32 3
  %27 = load i32, ptr %26, align 4
  %28 = add i32 %27, 1
  store i32 %28, ptr %26, align 4
  br label %38

29:                                               ; preds = %2
  %30 = load i32, ptr %5, align 4
  %31 = getelementptr inbounds nuw %"class.o3dgc::Arithmetic_Codec", ptr %7, i32 0, i32 4
  %32 = load i32, ptr %31, align 4
  %33 = sub i32 %32, %30
  store i32 %33, ptr %31, align 4
  %34 = load i32, ptr %5, align 4
  %35 = getelementptr inbounds nuw %"class.o3dgc::Arithmetic_Codec", ptr %7, i32 0, i32 5
  %36 = load i32, ptr %35, align 8
  %37 = sub i32 %36, %34
  store i32 %37, ptr %35, align 8
  br label %38

38:                                               ; preds = %29, %22
  %39 = getelementptr inbounds nuw %"class.o3dgc::Arithmetic_Codec", ptr %7, i32 0, i32 5
  %40 = load i32, ptr %39, align 8
  %41 = icmp ult i32 %40, 16777216
  br i1 %41, label %42, label %43

42:                                               ; preds = %38
  call void @_ZN5o3dgc16Arithmetic_Codec19renorm_dec_intervalEv(ptr noundef nonnull align 8 dereferenceable(44) %7)
  br label %43

43:                                               ; preds = %42, %38
  %44 = load ptr, ptr %4, align 8
  %45 = getelementptr inbounds nuw %"class.o3dgc::Adaptive_Bit_Model", ptr %44, i32 0, i32 1
  %46 = load i32, ptr %45, align 4
  %47 = add i32 %46, -1
  store i32 %47, ptr %45, align 4
  %48 = icmp eq i32 %47, 0
  br i1 %48, label %49, label %51

49:                                               ; preds = %43
  %50 = load ptr, ptr %4, align 8
  call void @_ZN5o3dgc18Adaptive_Bit_Model6updateEv(ptr noundef nonnull align 4 dereferenceable(20) %50)
  br label %51

51:                                               ; preds = %49, %43
  %52 = load i32, ptr %6, align 4
  call void @llvm.lifetime.end.p0(i64 4, ptr %6) #12
  call void @llvm.lifetime.end.p0(i64 4, ptr %5) #12
  ret i32 %52
}