; Function Attrs: mustprogress nofree norecurse nosync nounwind memory(read, argmem: readwrite, inaccessiblemem: none) uwtable
define hidden noundef range(i32 0, 2) i32 @_ZN5o3dgc16Arithmetic_Codec6decodeERNS_18Adaptive_Bit_ModelE(ptr noundef nonnull align 8 captures(none) dereferenceable(44) %0, ptr noundef nonnull align 4 captures(none) dereferenceable(20) %1) local_unnamed_addr #1 align 2 {
  %3 = getelementptr inbounds nuw i8, ptr %1, i64 8
  %4 = load i32, ptr %3, align 4
  %5 = getelementptr inbounds nuw i8, ptr %0, i64 32
  %6 = load i32, ptr %5, align 8
  %7 = lshr i32 %6, 13
  %8 = mul i32 %7, %4
  %9 = getelementptr inbounds nuw i8, ptr %0, i64 28
  %10 = load i32, ptr %9, align 4
  %11 = icmp uge i32 %10, %8
  br i1 %11, label %16, label %12

12:                                               ; preds = %2
  store i32 %8, ptr %5, align 8
  %13 = getelementptr inbounds nuw i8, ptr %1, i64 12
  %14 = load i32, ptr %13, align 4
  %15 = add i32 %14, 1
  store i32 %15, ptr %13, align 4
  %.pr = load i32, ptr %5, align 8
  br label %19

16:                                               ; preds = %2
  %17 = sub nuw i32 %10, %8
  store i32 %17, ptr %9, align 4
  %18 = sub i32 %6, %8
  store i32 %18, ptr %5, align 8
  br label %19

19:                                               ; preds = %16, %12
  %20 = phi i32 [ %18, %16 ], [ %.pr, %12 ]
  %21 = icmp ult i32 %20, 16777216
  br i1 %21, label %22, label %_ZN5o3dgc16Arithmetic_Codec19renorm_dec_intervalEv.exit

22:                                               ; preds = %19
  %23 = getelementptr inbounds nuw i8, ptr %0, i64 16
  %.promoted.i = load i32, ptr %9, align 4
  %.promoted1.i = load ptr, ptr %23, align 8
  br label %24

24:                                               ; preds = %24, %22
  %25 = phi i32 [ %33, %24 ], [ %20, %22 ]
  %26 = phi ptr [ %29, %24 ], [ %.promoted1.i, %22 ]
  %27 = phi i32 [ %32, %24 ], [ %.promoted.i, %22 ]
  %28 = shl i32 %27, 8
  %29 = getelementptr inbounds nuw i8, ptr %26, i64 1
  store ptr %29, ptr %23, align 8
  %30 = load i8, ptr %29, align 1
  %31 = zext i8 %30 to i32
  %32 = or disjoint i32 %28, %31
  store i32 %32, ptr %9, align 4
  %33 = shl nuw i32 %25, 8
  store i32 %33, ptr %5, align 8
  %34 = icmp ult i32 %25, 65536
  br i1 %34, label %24, label %_ZN5o3dgc16Arithmetic_Codec19renorm_dec_intervalEv.exit, !llvm.loop !6

_ZN5o3dgc16Arithmetic_Codec19renorm_dec_intervalEv.exit: ; preds = %24, %19
  %35 = getelementptr inbounds nuw i8, ptr %1, i64 4
  %36 = load i32, ptr %35, align 4
  %37 = add i32 %36, -1
  store i32 %37, ptr %35, align 4
  %38 = icmp eq i32 %37, 0
  br i1 %38, label %39, label %62

39:                                               ; preds = %_ZN5o3dgc16Arithmetic_Codec19renorm_dec_intervalEv.exit
  %40 = load i32, ptr %1, align 4
  %41 = getelementptr inbounds nuw i8, ptr %1, i64 16
  %42 = load i32, ptr %41, align 4
  %43 = add i32 %42, %40
  store i32 %43, ptr %41, align 4
  %44 = icmp ugt i32 %43, 8192
  br i1 %44, label %45, label %._crit_edge.i

._crit_edge.i:                                    ; preds = %39
  %.phi.trans.insert.i = getelementptr inbounds nuw i8, ptr %1, i64 12
  %.pre.i = load i32, ptr %.phi.trans.insert.i, align 4
  br label %_ZN5o3dgc18Adaptive_Bit_Model6updateEv.exit

45:                                               ; preds = %39
  %46 = add i32 %43, 1
  %47 = lshr i32 %46, 1
  store i32 %47, ptr %41, align 4
  %48 = getelementptr inbounds nuw i8, ptr %1, i64 12
  %49 = load i32, ptr %48, align 4
  %50 = add i32 %49, 1
  %51 = lshr i32 %50, 1
  store i32 %51, ptr %48, align 4
  %52 = icmp eq i32 %51, %47
  br i1 %52, label %53, label %_ZN5o3dgc18Adaptive_Bit_Model6updateEv.exit

53:                                               ; preds = %45
  %54 = add nuw i32 %47, 1
  store i32 %54, ptr %41, align 4
  br label %_ZN5o3dgc18Adaptive_Bit_Model6updateEv.exit

_ZN5o3dgc18Adaptive_Bit_Model6updateEv.exit:      ; preds = %._crit_edge.i, %45, %53
  %55 = phi i32 [ %51, %45 ], [ %47, %53 ], [ %.pre.i, %._crit_edge.i ]
  %56 = phi i32 [ %47, %45 ], [ %54, %53 ], [ %43, %._crit_edge.i ]
  %57 = udiv i32 -2147483648, %56
  %58 = mul i32 %57, %55
  %59 = lshr i32 %58, 18
  store i32 %59, ptr %3, align 4
  %60 = mul i32 %40, 5
  %61 = tail call i32 @llvm.umin.i32(i32 %60, i32 259)
  %spec.select.i = lshr i32 %61, 2
  store i32 %spec.select.i, ptr %1, align 4
  store i32 %spec.select.i, ptr %35, align 4
  br label %62

62:                                               ; preds = %_ZN5o3dgc18Adaptive_Bit_Model6updateEv.exit, %_ZN5o3dgc16Arithmetic_Codec19renorm_dec_intervalEv.exit
  %63 = zext i1 %11 to i32
  ret i32 %63
}